target datalayout = "e-m:e-p270:32:32-p271:32:32-p272:64:64-i64:64-i128:128-f80:128-n8:16:32:64-S128"
target triple = "x86_64-pc-linux-gnu"

%"class.llvm::Target" = type { ptr, ptr, ptr, ptr, ptr, i8, ptr, ptr, ptr, ptr, ptr, ptr, ptr, ptr, ptr, ptr, ptr, ptr, ptr, ptr, ptr, ptr, ptr, ptr, ptr, ptr, ptr, ptr, ptr, ptr, ptr }
%"class.llvm::Triple" = type { %"class.std::__cxx11::basic_string", i32, i32, i32, i32, i32, i32 }
%"class.std::__cxx11::basic_string" = type { %"struct.std::__cxx11::basic_string<char>::_Alloc_hider", i64, %union.anon }
%"struct.std::__cxx11::basic_string<char>::_Alloc_hider" = type { ptr }
%union.anon = type { i64, [8 x i8] }

; Function Attrs: mustprogress nounwind uwtable
define linkonce_odr hidden noundef i32 @_ZNK4llvm6Triple15getObjectFormatEv(ptr noundef nonnull align 8 dereferenceable(56) %0) #0 comdat align 2 {
  %2 = alloca ptr, align 8
  store ptr %0, ptr %2, align 8
  %3 = load ptr, ptr %2, align 8
  %4 = getelementptr inbounds nuw %"class.llvm::Triple", ptr %3, i32 0, i32 6
  %5 = load i32, ptr %4, align 4
  ret i32 %5
}

; Function Attrs: mustprogress nounwind uwtable
define dso_local noundef ptr @_ZNK4llvm6Target22createMCObjectStreamerERKNS_6TripleERNS_9MCContextESt10unique_ptrINS_12MCAsmBackendESt14default_deleteIS7_EES6_INS_14MCObjectWriterES8_ISB_EES6_INS_13MCCodeEmitterES8_ISE_EERKNS_15MCSubtargetInfoE(ptr noundef nonnull align 8 dereferenceable(248) %0, ptr noundef nonnull align 8 dereferenceable(56) %1, ptr noundef nonnull align 8 dereferenceable(2432) %2, ptr noundef %3, ptr noundef %4, ptr noundef %5, ptr noundef nonnull align 1 %6) #0 align 2 {
  %8 = alloca ptr, align 8
  %9 = alloca ptr, align 8
  %10 = alloca ptr, align 8
  %11 = alloca ptr, align 8
  %12 = alloca ptr, align 8
  %13 = alloca ptr, align 8
  %14 = alloca ptr, align 8
  %15 = alloca ptr, align 8
  store ptr %0, ptr %8, align 8
  store ptr %1, ptr %9, align 8
  store ptr %2, ptr %10, align 8
  store ptr %3, ptr %11, align 8
  store ptr %4, ptr %12, align 8
  store ptr %5, ptr %13, align 8
  store ptr %6, ptr %14, align 8
  %16 = load ptr, ptr %8, align 8
  store ptr null, ptr %15, align 8
  %17 = load ptr, ptr %9, align 8
  %18 = call noundef i32 @_ZNK4llvm6Triple15getObjectFormatEv(ptr noundef nonnull align 8 dereferenceable(56) %17)
  switch i32 %18, label %70 [
    i32 0, label %19
    i32 1, label %20
    i32 5, label %25
    i32 3, label %38
    i32 7, label %52
    i32 4, label %55
    i32 8, label %58
    i32 6, label %64
    i32 2, label %67
  ]

19:                                               ; preds = %7
  unreachable

20:                                               ; preds = %7
  %21 = getelementptr inbounds nuw %"class.llvm::Target", ptr %16, i32 0, i32 19
  %22 = load ptr, ptr %21, align 8
  %23 = load ptr, ptr %10, align 8
  %24 = call noundef ptr %22(ptr noundef nonnull align 8 dereferenceable(2432) %23, ptr noundef nonnull align 8 dereferenceable(8) %3, ptr noundef nonnull align 8 dereferenceable(8) %4, ptr noundef nonnull align 8 dereferenceable(8) %5)
  store ptr %24, ptr %15, align 8
  br label %70

25:                                               ; preds = %7
  %26 = getelementptr inbounds nuw %"class.llvm::Target", ptr %16, i32 0, i32 20
  %27 = load ptr, ptr %26, align 8
  %28 = icmp ne ptr %27, null
  br i1 %28, label %29, label %34

29:                                               ; preds = %25
  %30 = getelementptr inbounds nuw %"class.llvm::Target", ptr %16, i32 0, i32 20
  %31 = load ptr, ptr %30, align 8
  %32 = load ptr, ptr %10, align 8
  %33 = call noundef ptr %31(ptr noundef nonnull align 8 dereferenceable(2432) %32, ptr noundef nonnull align 8 dereferenceable(8) %3, ptr noundef nonnull align 8 dereferenceable(8) %4, ptr noundef nonnull align 8 dereferenceable(8) %5)
  store ptr %33, ptr %15, align 8
  br label %37

34:                                               ; preds = %25
  %35 = load ptr, ptr %10, align 8
  %36 = call noundef ptr @_ZN4llvm19createMachOStreamerERNS_9MCContextEOSt10unique_ptrINS_12MCAsmBackendESt14default_deleteIS3_EEOS2_INS_14MCObjectWriterES4_IS8_EEOS2_INS_13MCCodeEmitterES4_ISC_EEbb(ptr noundef nonnull align 8 dereferenceable(2432) %35, ptr noundef nonnull align 8 dereferenceable(8) %3, ptr noundef nonnull align 8 dereferenceable(8) %4, ptr noundef nonnull align 8 dereferenceable(8) %5, i1 noundef zeroext false, i1 noundef zeroext false)
  store ptr %36, ptr %15, align 8
  br label %37

37:                                               ; preds = %34, %29
  br label %70

38:                                               ; preds = %7
  %39 = getelementptr inbounds nuw %"class.llvm::Target", ptr %16, i32 0, i32 21
  %40 = load ptr, ptr %39, align 8
  %41 = icmp ne ptr %40, null
  br i1 %41, label %42, label %48

42:                                               ; preds = %38
  %43 = getelementptr inbounds nuw %"class.llvm::Target", ptr %16, i32 0, i32 21
  %44 = load ptr, ptr %43, align 8
  %45 = load ptr, ptr %9, align 8
  %46 = load ptr, ptr %10, align 8
  %47 = call noundef ptr %44(ptr noundef nonnull align 8 dereferenceable(56) %45, ptr noundef nonnull align 8 dereferenceable(2432) %46, ptr noundef nonnull align 8 dereferenceable(8) %3, ptr noundef nonnull align 8 dereferenceable(8) %4, ptr noundef nonnull align 8 dereferenceable(8) %5)
  store ptr %47, ptr %15, align 8
  br label %51

48:                                               ; preds = %38
  %49 = load ptr, ptr %10, align 8
  %50 = call noundef ptr @_ZN4llvm17createELFStreamerERNS_9MCContextEOSt10unique_ptrINS_12MCAsmBackendESt14default_deleteIS3_EEOS2_INS_14MCObjectWriterES4_IS8_EEOS2_INS_13MCCodeEmitterES4_ISC_EE(ptr noundef nonnull align 8 dereferenceable(2432) %49, ptr noundef nonnull align 8 dereferenceable(8) %3, ptr noundef nonnull align 8 dereferenceable(8) %4, ptr noundef nonnull align 8 dereferenceable(8) %5)
  store ptr %50, ptr %15, align 8
  br label %51

51:                                               ; preds = %48, %42
  br label %70

52:                                               ; preds = %7
  %53 = load ptr, ptr %10, align 8
  %54 = call noundef ptr @_ZN4llvm18createWasmStreamerERNS_9MCContextEOSt10unique_ptrINS_12MCAsmBackendESt14default_deleteIS3_EEOS2_INS_14MCObjectWriterES4_IS8_EEOS2_INS_13MCCodeEmitterES4_ISC_EE(ptr noundef nonnull align 8 dereferenceable(2432) %53, ptr noundef nonnull align 8 dereferenceable(8) %3, ptr noundef nonnull align 8 dereferenceable(8) %4, ptr noundef nonnull align 8 dereferenceable(8) %5)
  store ptr %54, ptr %15, align 8
  br label %70

55:                                               ; preds = %7
  %56 = load ptr, ptr %10, align 8
  %57 = call noundef ptr @_ZN4llvm18createGOFFStreamerERNS_9MCContextEOSt10unique_ptrINS_12MCAsmBackendESt14default_deleteIS3_EEOS2_INS_14MCObjectWriterES4_IS8_EEOS2_INS_13MCCodeEmitterES4_ISC_EE(ptr noundef nonnull align 8 dereferenceable(2432) %56, ptr noundef nonnull align 8 dereferenceable(8) %3, ptr noundef nonnull align 8 dereferenceable(8) %4, ptr noundef nonnull align 8 dereferenceable(8) %5)
  store ptr %57, ptr %15, align 8
  br label %70

58:                                               ; preds = %7
  %59 = getelementptr inbounds nuw %"class.llvm::Target", ptr %16, i32 0, i32 22
  %60 = load ptr, ptr %59, align 8
  %61 = load ptr, ptr %9, align 8
  %62 = load ptr, ptr %10, align 8
  %63 = call noundef ptr %60(ptr noundef nonnull align 8 dereferenceable(56) %61, ptr noundef nonnull align 8 dereferenceable(2432) %62, ptr noundef nonnull align 8 dereferenceable(8) %3, ptr noundef nonnull align 8 dereferenceable(8) %4, ptr noundef nonnull align 8 dereferenceable(8) %5)
  store ptr %63, ptr %15, align 8
  br label %70

64:                                               ; preds = %7
  %65 = load ptr, ptr %10, align 8
  %66 = call noundef ptr @_ZN4llvm19createSPIRVStreamerERNS_9MCContextEOSt10unique_ptrINS_12MCAsmBackendESt14default_deleteIS3_EEOS2_INS_14MCObjectWriterES4_IS8_EEOS2_INS_13MCCodeEmitterES4_ISC_EE(ptr noundef nonnull align 8 dereferenceable(2432) %65, ptr noundef nonnull align 8 dereferenceable(8) %3, ptr noundef nonnull align 8 dereferenceable(8) %4, ptr noundef nonnull align 8 dereferenceable(8) %5)
  store ptr %66, ptr %15, align 8
  br label %70

67:                                               ; preds = %7
  %68 = load ptr, ptr %10, align 8
  %69 = call noundef ptr @_ZN4llvm25createDXContainerStreamerERNS_9MCContextEOSt10unique_ptrINS_12MCAsmBackendESt14default_deleteIS3_EEOS2_INS_14MCObjectWriterES4_IS8_EEOS2_INS_13MCCodeEmitterES4_ISC_EE(ptr noundef nonnull align 8 dereferenceable(2432) %68, ptr noundef nonnull align 8 dereferenceable(8) %3, ptr noundef nonnull align 8 dereferenceable(8) %4, ptr noundef nonnull align 8 dereferenceable(8) %5)
  store ptr %69, ptr %15, align 8
  br label %70

70:                                               ; preds = %67, %64, %58, %55, %52, %51, %37, %20, %7
  %71 = getelementptr inbounds nuw %"class.llvm::Target", ptr %16, i32 0, i32 25
  %72 = load ptr, ptr %71, align 8
  %73 = icmp ne ptr %72, null
  br i1 %73, label %74, label %80

74:                                               ; preds = %70
  %75 = getelementptr inbounds nuw %"class.llvm::Target", ptr %16, i32 0, i32 25
  %76 = load ptr, ptr %75, align 8
  %77 = load ptr, ptr %15, align 8
  %78 = load ptr, ptr %14, align 8
  %79 = call noundef ptr %76(ptr noundef nonnull align 8 dereferenceable(288) %77, ptr noundef nonnull align 1 %78)
  br label %80

80:                                               ; preds = %74, %70
  %81 = load ptr, ptr %15, align 8
  ret ptr %81
}