; Function Attrs: mustprogress nounwind uwtable
define dso_local noundef ptr @_ZNK4llvm6Target22createMCObjectStreamerERKNS_6TripleERNS_9MCContextESt10unique_ptrINS_12MCAsmBackendESt14default_deleteIS7_EES6_INS_14MCObjectWriterES8_ISB_EES6_INS_13MCCodeEmitterES8_ISE_EERKNS_15MCSubtargetInfoE(ptr noundef nonnull readonly align 8 captures(none) dereferenceable(248) %0, ptr noundef nonnull align 8 dereferenceable(56) %1, ptr noundef nonnull align 8 dereferenceable(2432) %2, ptr noundef %3, ptr noundef %4, ptr noundef %5, ptr noundef nonnull align 1 %6) local_unnamed_addr #0 align 2 {
  %8 = getelementptr inbounds nuw i8, ptr %1, i64 52
  %9 = load i32, ptr %8, align 4
  switch i32 %9, label %40 [
    i32 2, label %38
    i32 1, label %10
    i32 5, label %14
    i32 3, label %21
    i32 7, label %28
    i32 4, label %30
    i32 8, label %32
    i32 6, label %36
  ]

10:                                               ; preds = %7
  %11 = getelementptr inbounds nuw i8, ptr %0, i64 152
  %12 = load ptr, ptr %11, align 8
  %13 = tail call noundef ptr %12(ptr noundef nonnull align 8 dereferenceable(2432) %2, ptr noundef nonnull align 8 dereferenceable(8) %3, ptr noundef nonnull align 8 dereferenceable(8) %4, ptr noundef nonnull align 8 dereferenceable(8) %5) #16
  br label %40

14:                                               ; preds = %7
  %15 = getelementptr inbounds nuw i8, ptr %0, i64 160
  %16 = load ptr, ptr %15, align 8
  %.not20 = icmp eq ptr %16, null
  br i1 %.not20, label %19, label %17

17:                                               ; preds = %14
  %18 = tail call noundef ptr %16(ptr noundef nonnull align 8 dereferenceable(2432) %2, ptr noundef nonnull align 8 dereferenceable(8) %3, ptr noundef nonnull align 8 dereferenceable(8) %4, ptr noundef nonnull align 8 dereferenceable(8) %5) #16
  br label %40

19:                                               ; preds = %14
  %20 = tail call noundef ptr @_ZN4llvm19createMachOStreamerERNS_9MCContextEOSt10unique_ptrINS_12MCAsmBackendESt14default_deleteIS3_EEOS2_INS_14MCObjectWriterES4_IS8_EEOS2_INS_13MCCodeEmitterES4_ISC_EEbb(ptr noundef nonnull align 8 dereferenceable(2432) %2, ptr noundef nonnull align 8 dereferenceable(8) %3, ptr noundef nonnull align 8 dereferenceable(8) %4, ptr noundef nonnull align 8 dereferenceable(8) %5, i1 noundef zeroext false, i1 noundef zeroext false) #16
  br label %40

21:                                               ; preds = %7
  %22 = getelementptr inbounds nuw i8, ptr %0, i64 168
  %23 = load ptr, ptr %22, align 8
  %.not = icmp eq ptr %23, null
  br i1 %.not, label %26, label %24

24:                                               ; preds = %21
  %25 = tail call noundef ptr %23(ptr noundef nonnull align 8 dereferenceable(56) %1, ptr noundef nonnull align 8 dereferenceable(2432) %2, ptr noundef nonnull align 8 dereferenceable(8) %3, ptr noundef nonnull align 8 dereferenceable(8) %4, ptr noundef nonnull align 8 dereferenceable(8) %5) #16
  br label %40

26:                                               ; preds = %21
  %27 = tail call noundef ptr @_ZN4llvm17createELFStreamerERNS_9MCContextEOSt10unique_ptrINS_12MCAsmBackendESt14default_deleteIS3_EEOS2_INS_14MCObjectWriterES4_IS8_EEOS2_INS_13MCCodeEmitterES4_ISC_EE(ptr noundef nonnull align 8 dereferenceable(2432) %2, ptr noundef nonnull align 8 dereferenceable(8) %3, ptr noundef nonnull align 8 dereferenceable(8) %4, ptr noundef nonnull align 8 dereferenceable(8) %5) #16
  br label %40

28:                                               ; preds = %7
  %29 = tail call noundef ptr @_ZN4llvm18createWasmStreamerERNS_9MCContextEOSt10unique_ptrINS_12MCAsmBackendESt14default_deleteIS3_EEOS2_INS_14MCObjectWriterES4_IS8_EEOS2_INS_13MCCodeEmitterES4_ISC_EE(ptr noundef nonnull align 8 dereferenceable(2432) %2, ptr noundef nonnull align 8 dereferenceable(8) %3, ptr noundef nonnull align 8 dereferenceable(8) %4, ptr noundef nonnull align 8 dereferenceable(8) %5) #16
  br label %40

30:                                               ; preds = %7
  %31 = tail call noundef ptr @_ZN4llvm18createGOFFStreamerERNS_9MCContextEOSt10unique_ptrINS_12MCAsmBackendESt14default_deleteIS3_EEOS2_INS_14MCObjectWriterES4_IS8_EEOS2_INS_13MCCodeEmitterES4_ISC_EE(ptr noundef nonnull align 8 dereferenceable(2432) %2, ptr noundef nonnull align 8 dereferenceable(8) %3, ptr noundef nonnull align 8 dereferenceable(8) %4, ptr noundef nonnull align 8 dereferenceable(8) %5) #16
  br label %40

32:                                               ; preds = %7
  %33 = getelementptr inbounds nuw i8, ptr %0, i64 176
  %34 = load ptr, ptr %33, align 8
  %35 = tail call noundef ptr %34(ptr noundef nonnull align 8 dereferenceable(56) %1, ptr noundef nonnull align 8 dereferenceable(2432) %2, ptr noundef nonnull align 8 dereferenceable(8) %3, ptr noundef nonnull align 8 dereferenceable(8) %4, ptr noundef nonnull align 8 dereferenceable(8) %5) #16
  br label %40

36:                                               ; preds = %7
  %37 = tail call noundef ptr @_ZN4llvm19createSPIRVStreamerERNS_9MCContextEOSt10unique_ptrINS_12MCAsmBackendESt14default_deleteIS3_EEOS2_INS_14MCObjectWriterES4_IS8_EEOS2_INS_13MCCodeEmitterES4_ISC_EE(ptr noundef nonnull align 8 dereferenceable(2432) %2, ptr noundef nonnull align 8 dereferenceable(8) %3, ptr noundef nonnull align 8 dereferenceable(8) %4, ptr noundef nonnull align 8 dereferenceable(8) %5) #16
  br label %40

38:                                               ; preds = %7
  %39 = tail call noundef ptr @_ZN4llvm25createDXContainerStreamerERNS_9MCContextEOSt10unique_ptrINS_12MCAsmBackendESt14default_deleteIS3_EEOS2_INS_14MCObjectWriterES4_IS8_EEOS2_INS_13MCCodeEmitterES4_ISC_EE(ptr noundef nonnull align 8 dereferenceable(2432) %2, ptr noundef nonnull align 8 dereferenceable(8) %3, ptr noundef nonnull align 8 dereferenceable(8) %4, ptr noundef nonnull align 8 dereferenceable(8) %5) #16
  br label %40

40:                                               ; preds = %24, %26, %17, %19, %38, %36, %32, %30, %28, %10, %7
  %.0 = phi ptr [ null, %7 ], [ %37, %36 ], [ %35, %32 ], [ %31, %30 ], [ %29, %28 ], [ %25, %24 ], [ %27, %26 ], [ %18, %17 ], [ %20, %19 ], [ %13, %10 ], [ %39, %38 ]
  %41 = getelementptr inbounds nuw i8, ptr %0, i64 200
  %42 = load ptr, ptr %41, align 8
  %.not21 = icmp eq ptr %42, null
  br i1 %.not21, label %45, label %43

43:                                               ; preds = %40
  %44 = tail call noundef ptr %42(ptr noundef nonnull align 8 dereferenceable(288) %.0, ptr noundef nonnull align 1 %6) #16
  br label %45

45:                                               ; preds = %43, %40
  ret ptr %.0
}